(i__main__
State
p0
(dp1
S'tock'
p2
I3
sS'nats_by_name'
p3
(dp4
S'Brazil'
p5
(i__main__
Nation
p6
(dp7
S'troop_skill'
p8
I1
sS'name'
p9
g5
sS'turn_done'
p10
I00
sS'money'
p11
L10000000000L
sS'pop'
p12
I191241714
sS'human'
p13
I00
sS'conquered'
p14
NsS'soldiers'
p15
I1687600
sS'adj'
p16
S'Braz.'
p17
sbsS'N. Korea'
p18
(i__main__
Nation
p19
(dp20
g8
I2
sg9
g18
sg10
I00
sg11
I750000000
sg12
I22666000
sg13
I00
sg14
(i__main__
Nation
p21
(dp22
g8
I5
sg9
S'USA'
p23
sg10
I00
sg11
L250000000L
sg12
I306963000
sg13
I01
sg14
Nsg15
I5710
sg16
S'US'
p24
sbsg15
I0
sg16
S'NKor'
p25
sbsS'Iran'
p26
(i__main__
Nation
p27
(dp28
g8
I2
sg9
g26
sg10
I00
sg11
L10000000000L
sg12
I70495782
sg13
I00
sg14
Nsg15
I1695000
sg16
S'Iran.'
p29
sbsg23
g21
sS'Mexico'
p30
(i__main__
Nation
p31
(dp32
g8
I1
sg9
g30
sg10
I00
sg11
L10000000000L
sg12
I111211789
sg13
I00
sg14
Nsg15
I517770
sg16
S'Mexn'
p33
sbsS'India'
p34
(i__main__
Nation
p35
(dp36
g8
I3
sg9
g34
sg10
I00
sg11
L100000000000L
sg12
I1100000000
sg13
I00
sg14
Nsg15
I3773300
sg16
S'Ind'
p37
sbsS'France'
p38
(i__main__
Nation
p39
(dp40
g8
I3
sg9
g38
sg10
I00
sg11
L100000000000L
sg12
I65073482
sg13
I00
sg14
Nsg15
I779450
sg16
S'Fre'
p41
sbsS'China'
p42
(i__main__
Nation
p43
(dp44
g8
I3
sg9
g42
sg10
I00
sg11
L1000000000000L
sg12
I1338612968
sg13
I01
sg14
Nsg15
I7024000
sg16
S'Chin'
p45
sbsS'UK'
p46
(i__main__
Nation
p47
(dp48
g8
I5
sg9
g46
sg10
I00
sg11
L200000000000L
sg12
I61612300
sg13
I00
sg14
Nsg15
I421830
sg16
g46
sbsS'Japan'
p49
(i__main__
Nation
p50
(dp51
g8
I3
sg9
g49
sg10
I00
sg11
L300000000000L
sg12
I127433494
sg13
I00
sg14
Nsg15
I296550
sg16
S'Jap'
p52
sbsS'Germany'
p53
(i__main__
Nation
p54
(dp55
g8
I4
sg9
g53
sg10
I00
sg11
L250000000000L
sg12
I82060000
sg13
I00
sg14
Nsg15
I606362
sg16
S'Ger'
p56
sbsS'Russia'
p57
(i__main__
Nation
p58
(dp59
g8
I4
sg9
g57
sg10
I00
sg11
L100000000000L
sg12
I142008838
sg13
I00
sg14
Nsg15
I3796100
sg16
S'Rus'
p60
sbssS'nats'
p61
(lp62
g21
ag39
ag54
ag31
ag43
ag58
ag27
ag50
ag35
ag6
ag47
ag19
asS'last_tick_results'
p63
S'France thinks...\nGermany thinks...\nMexico thinks...\nRussia thinks...\nIran thinks...\nJapan thinks...\nIndia thinks...\nBrazil thinks...\nUK thinks...\nN. Korea thinks...\nTime advances to 3...\nIn the war in N. Korea the losses are 259.6k NKor soldiers and 22.2k US soldiers\nN. Korea conquered by USA\nUSA loots $250m from conquered N. Korea\n'
p64
sS'last_input'
p65
S'l'
p66
sS'stances'
p67
(dp68
g27
(dp69
g27
I10
sg35
I6
sg43
I6
sg54
I6
sg21
I4
sg6
I6
sg19
I6
sg31
I6
sg39
I6
sg50
I6
sg58
I6
sg47
I6
ssg35
(dp70
g27
I6
sg35
I10
sg43
I6
sg54
I6
sg21
I7
sg6
I6
sg19
I6
sg31
I6
sg39
I6
sg50
I6
sg58
I6
sg47
I6
ssg43
(dp71
g27
I6
sg35
I6
sg43
I10
sg54
I6
sg21
I5
sg6
I6
sg19
I6
sg31
I6
sg39
I6
sg50
I6
sg58
I6
sg47
I6
ssg54
(dp72
g27
I6
sg35
I6
sg43
I6
sg54
I10
sg21
I8
sg6
I6
sg19
I6
sg31
I6
sg39
I6
sg50
I6
sg58
I6
sg47
I6
ssg21
(dp73
g27
I4
sg35
I7
sg43
I5
sg54
I8
sg21
I10
sg6
I7
sg19
I1
sg31
I7
sg39
I8
sg50
I9
sg58
I5
sg47
I9
ssg6
(dp74
g27
I6
sg35
I6
sg43
I6
sg54
I6
sg21
I7
sg6
I10
sg19
I6
sg31
I6
sg39
I6
sg50
I6
sg58
I6
sg47
I6
ssg19
(dp75
g27
I6
sg35
I6
sg43
I6
sg54
I6
sg21
I1
sg6
I6
sg19
I10
sg31
I6
sg39
I6
sg50
I6
sg58
I6
sg47
I6
ssg31
(dp76
g27
I6
sg35
I6
sg43
I6
sg54
I6
sg21
I7
sg6
I6
sg19
I6
sg31
I10
sg39
I6
sg50
I6
sg58
I6
sg47
I6
ssg39
(dp77
g27
I6
sg35
I6
sg43
I6
sg54
I6
sg21
I8
sg6
I6
sg19
I6
sg31
I6
sg39
I10
sg50
I6
sg58
I6
sg47
I6
ssg50
(dp78
g27
I6
sg35
I6
sg43
I6
sg54
I6
sg21
I9
sg6
I6
sg19
I6
sg31
I6
sg39
I6
sg50
I10
sg58
I6
sg47
I6
ssg58
(dp79
g27
I6
sg35
I6
sg43
I6
sg54
I6
sg21
I5
sg6
I6
sg19
I6
sg31
I6
sg39
I6
sg50
I6
sg58
I10
sg47
I6
ssg47
(dp80
g27
I6
sg35
I6
sg43
I6
sg54
I6
sg21
I9
sg6
I6
sg19
I6
sg31
I6
sg39
I6
sg50
I6
sg58
I6
sg47
I10
sssS'forces'
p81
(lp82
(i__main__
Force
p83
(dp84
S'owner'
p85
g21
sg15
I22929903
sS'target_nat'
p86
g19
sbasb.