(i__main__
State
p0
(dp1
S'tock'
p2
I1
sS'nats_by_name'
p3
(dp4
S'Brazil'
p5
(i__main__
Nation
p6
(dp7
S'troop_skill'
p8
I1
sS'name'
p9
g5
sS'turn_done'
p10
I01
sS'money'
p11
L10000000000L
sS'pop'
p12
I191241714
sS'human'
p13
I00
sS'conquered'
p14
NsS'soldiers'
p15
I1687600
sS'adj'
p16
S'Braz.'
p17
sbsS'N. Korea'
p18
(i__main__
Nation
p19
(dp20
g8
I2
sg9
g18
sg10
I01
sg11
I1000000000
sg12
I22666000
sg13
I00
sg14
Nsg15
I5995000
sg16
S'N. Korean'
p21
sbsS'Iran'
p22
(i__main__
Nation
p23
(dp24
g8
I2
sg9
g22
sg10
I01
sg11
L10000000000L
sg12
I70495782
sg13
I00
sg14
Nsg15
I1695000
sg16
S'Iranian'
p25
sbsS'USA'
p26
(i__main__
Nation
p27
(dp28
g8
I5
sg9
g26
sg10
I00
sg11
L2000000000000L
sg12
I306963000
sg13
I01
sg14
Nsg15
I3385400
sg16
S'US'
p29
sbsS'Mexico'
p30
(i__main__
Nation
p31
(dp32
g8
I1
sg9
g30
sg10
I01
sg11
L10000000000L
sg12
I111211789
sg13
I00
sg14
Nsg15
I517770
sg16
S'Mexican'
p33
sbsS'India'
p34
(i__main__
Nation
p35
(dp36
g8
I3
sg9
g34
sg10
I01
sg11
L100000000000L
sg12
I1100000000
sg13
I00
sg14
Nsg15
I3773300
sg16
S'Indian'
p37
sbsS'France'
p38
(i__main__
Nation
p39
(dp40
g8
I3
sg9
g38
sg10
I01
sg11
L100000000000L
sg12
I65073482
sg13
I00
sg14
Nsg15
I779450
sg16
S'French'
p41
sbsS'China'
p42
(i__main__
Nation
p43
(dp44
g8
I3
sg9
g42
sg10
I00
sg11
L1000000000000L
sg12
I1338612968
sg13
I01
sg14
Nsg15
I7024000
sg16
S'Chinese'
p45
sbsS'UK'
p46
(i__main__
Nation
p47
(dp48
g8
I5
sg9
g46
sg10
I01
sg11
L200000000000L
sg12
I61612300
sg13
I00
sg14
Nsg15
I421830
sg16
g46
sbsS'Japan'
p49
(i__main__
Nation
p50
(dp51
g8
I3
sg9
g49
sg10
I01
sg11
L300000000000L
sg12
I127433494
sg13
I00
sg14
Nsg15
I296550
sg16
S'Japanese'
p52
sbsS'Germany'
p53
(i__main__
Nation
p54
(dp55
g8
I4
sg9
g53
sg10
I01
sg11
L250000000000L
sg12
I82060000
sg13
I00
sg14
Nsg15
I606362
sg16
S'German'
p56
sbsS'Russia'
p57
(i__main__
Nation
p58
(dp59
g8
I4
sg9
g57
sg10
I01
sg11
L100000000000L
sg12
I142008838
sg13
I00
sg14
Nsg15
I3796100
sg16
S'Russian'
p60
sbssS'nats'
p61
(lp62
g27
ag39
ag54
ag31
ag43
ag58
ag23
ag50
ag35
ag6
ag47
ag19
asS'last_input'
p63
S'n'
p64
sS'stances'
p65
(dp66
g27
(dp67
g27
I10
sg58
I5
sg47
I9
sg39
I8
sg6
I7
sg31
I7
sg43
I5
sg19
I4
sg23
I4
sg54
I8
sg35
I7
sg50
I9
ssg58
(dp68
g27
I5
sg58
I10
sg47
I6
sg39
I6
sg6
I6
sg31
I6
sg43
I6
sg19
I6
sg23
I6
sg54
I6
sg35
I6
sg50
I6
ssg47
(dp69
g27
I9
sg58
I6
sg47
I10
sg39
I6
sg6
I6
sg31
I6
sg43
I6
sg19
I6
sg23
I6
sg54
I6
sg35
I6
sg50
I6
ssg39
(dp70
g27
I8
sg58
I6
sg47
I6
sg39
I10
sg6
I6
sg31
I6
sg43
I6
sg19
I6
sg23
I6
sg54
I6
sg35
I6
sg50
I6
ssg6
(dp71
g27
I7
sg58
I6
sg47
I6
sg39
I6
sg6
I10
sg31
I6
sg43
I6
sg19
I6
sg23
I6
sg54
I6
sg35
I6
sg50
I6
ssg31
(dp72
g27
I7
sg58
I6
sg47
I6
sg39
I6
sg6
I6
sg31
I10
sg43
I6
sg19
I6
sg23
I6
sg54
I6
sg35
I6
sg50
I6
ssg43
(dp73
g27
I5
sg58
I6
sg47
I6
sg39
I6
sg6
I6
sg31
I6
sg43
I10
sg19
I6
sg23
I6
sg54
I6
sg35
I6
sg50
I6
ssg19
(dp74
g27
I4
sg58
I6
sg47
I6
sg39
I6
sg6
I6
sg31
I6
sg43
I6
sg19
I10
sg23
I6
sg54
I6
sg35
I6
sg50
I6
ssg23
(dp75
g27
I4
sg58
I6
sg47
I6
sg39
I6
sg6
I6
sg31
I6
sg43
I6
sg19
I6
sg23
I10
sg54
I6
sg35
I6
sg50
I6
ssg54
(dp76
g27
I8
sg58
I6
sg47
I6
sg39
I6
sg6
I6
sg31
I6
sg43
I6
sg19
I6
sg23
I6
sg54
I10
sg35
I6
sg50
I6
ssg35
(dp77
g27
I7
sg58
I6
sg47
I6
sg39
I6
sg6
I6
sg31
I6
sg43
I6
sg19
I6
sg23
I6
sg54
I6
sg35
I10
sg50
I6
ssg50
(dp78
g27
I9
sg58
I6
sg47
I6
sg39
I6
sg6
I6
sg31
I6
sg43
I6
sg19
I6
sg23
I6
sg54
I6
sg35
I6
sg50
I10
sssS'forces'
p79
(lp80
sb.