(i__main__
State
p0
(dp1
S'nats_by_name'
p2
(dp3
S'Brazil'
p4
(i__main__
Nation
p5
(dp6
S'troop_skill'
p7
I1
sS'name'
p8
g4
sS'soldiers'
p9
I1687600
sS'money'
p10
L10000000000L
sS'conquered'
p11
NsS'adj'
p12
S'Braz.'
p13
sS'pop'
p14
I191241714
sbsS'N. Korea'
p15
(i__main__
Nation
p16
(dp17
g7
I2
sg8
g15
sg9
I0
sg10
I56313516
sg11
(i__main__
Nation
p18
(dp19
g7
I5
sg8
S'USA'
p20
sg9
I4880
sg10
L184393786484L
sg11
Nsg12
S'US'
p21
sg14
I306963000
sbsg12
S'N. Korean'
p22
sg14
I22666000
sbsS'Iran'
p23
(i__main__
Nation
p24
(dp25
g7
I2
sg8
g23
sg9
I1695000
sg10
L10000000000L
sg11
Nsg12
S'Iranian'
p26
sg14
I70495782
sbsg20
g18
sS'Mexico'
p27
(i__main__
Nation
p28
(dp29
g7
I1
sg8
g27
sg9
I517770
sg10
L10000000000L
sg11
Nsg12
S'Mexican'
p30
sg14
I111211789
sbsS'India'
p31
(i__main__
Nation
p32
(dp33
g7
I3
sg8
g31
sg9
I1277580
sg10
L100000000000L
sg11
Nsg12
S'Indian'
p34
sg14
I1100000000
sbsS'France'
p35
(i__main__
Nation
p36
(dp37
g7
I3
sg8
g35
sg9
I0
sg10
L75000000000L
sg11
g18
sg12
S'French'
p38
sg14
I65073482
sbsS'China'
p39
(i__main__
Nation
p40
(dp41
g7
I3
sg8
g39
sg9
I13386
sg10
L750000000000L
sg11
Nsg12
S'Chinese'
p42
sg14
I1338612968
sbsS'UK'
p43
(i__main__
Nation
p44
(dp45
g7
I5
sg8
g43
sg9
I0
sg10
L112500000000L
sg11
g18
sg12
g43
sg14
I61612300
sbsS'Japan'
p46
(i__main__
Nation
p47
(dp48
g7
I3
sg8
g46
sg9
I0
sg10
L225000000000L
sg11
g18
sg12
S'Japanese'
p49
sg14
I127433494
sbsS'Germany'
p50
(i__main__
Nation
p51
(dp52
g7
I4
sg8
g50
sg9
I0
sg10
L140625000000L
sg11
g18
sg12
S'German'
p53
sg14
I82060000
sbsS'Russia'
p54
(i__main__
Nation
p55
(dp56
g7
I4
sg8
g54
sg9
I3796100
sg10
L100000000000L
sg11
Nsg12
S'Russian'
p57
sg14
I142008838
sbssS'nats'
p58
(lp59
g18
ag36
ag51
ag28
ag40
ag55
ag24
ag47
ag32
ag5
ag44
ag16
asS'last_input'
p60
S'n'
p61
sS'stances'
p62
(dp63
g32
(dp64
g32
I10
sg5
I6
sg36
I6
sg44
I6
sg40
I6
sg47
I6
sg55
I6
sg18
I1
sg16
I6
sg51
I6
sg28
I6
sg24
I6
ssg5
(dp65
g32
I6
sg5
I10
sg36
I6
sg44
I6
sg40
I6
sg47
I6
sg55
I6
sg18
I7
sg16
I6
sg51
I6
sg28
I6
sg24
I6
ssg36
(dp66
g32
I6
sg5
I6
sg36
I10
sg44
I6
sg40
I6
sg47
I6
sg55
I6
sg18
I1
sg16
I6
sg51
I6
sg28
I6
sg24
I6
ssg44
(dp67
g32
I6
sg5
I6
sg36
I6
sg44
I10
sg40
I6
sg47
I6
sg55
I6
sg18
I1
sg16
I6
sg51
I6
sg28
I6
sg24
I6
ssg40
(dp68
g32
I6
sg5
I6
sg36
I6
sg44
I6
sg40
I10
sg47
I6
sg55
I6
sg18
I1
sg16
I6
sg51
I6
sg28
I6
sg24
I6
ssg47
(dp69
g32
I6
sg5
I6
sg36
I6
sg44
I6
sg40
I6
sg47
I10
sg55
I6
sg18
I1
sg16
I6
sg51
I6
sg28
I6
sg24
I6
ssg55
(dp70
g32
I6
sg5
I6
sg36
I6
sg44
I6
sg40
I6
sg47
I6
sg55
I10
sg18
I5
sg16
I6
sg51
I6
sg28
I6
sg24
I6
ssg18
(dp71
g32
I1
sg5
I7
sg36
I1
sg44
I1
sg40
I1
sg47
I1
sg55
I5
sg18
I10
sg16
I1
sg51
I1
sg28
I7
sg24
I4
ssg16
(dp72
g32
I6
sg5
I6
sg36
I6
sg44
I6
sg40
I6
sg47
I6
sg55
I6
sg18
I1
sg16
I10
sg51
I6
sg28
I6
sg24
I6
ssg51
(dp73
g32
I6
sg5
I6
sg36
I6
sg44
I6
sg40
I6
sg47
I6
sg55
I6
sg18
I1
sg16
I6
sg51
I10
sg28
I6
sg24
I6
ssg28
(dp74
g32
I6
sg5
I6
sg36
I6
sg44
I6
sg40
I6
sg47
I6
sg55
I6
sg18
I7
sg16
I6
sg51
I6
sg28
I10
sg24
I6
ssg24
(dp75
g32
I6
sg5
I6
sg36
I6
sg44
I6
sg40
I6
sg47
I6
sg55
I6
sg18
I4
sg16
I6
sg51
I6
sg28
I6
sg24
I10
sssS'forces'
p76
(lp77
(i__main__
Force
p78
(dp79
S'owner'
p80
g18
sS'soldiers'
p81
I226660
sS'target_nat'
p82
g16
sba(i__main__
Force
p83
(dp84
S'owner'
p85
g18
sS'soldiers'
p86
I820600
sS'target_nat'
p87
g51
sba(i__main__
Force
p88
(dp89
g85
g18
sg86
I616123
sg87
g44
sba(i__main__
Force
p90
(dp91
g85
g18
sg86
I9759049
sg87
g36
sba(i__main__
Force
p92
(dp93
g85
g18
sg86
I4907521
sg87
g47
sba(i__main__
Force
p94
(dp95
g85
g18
sg86
I3860798
sg87
g32
sbasS'you'
p96
I0
sb.