(i__main__
State
p0
(dp1
S'nats_by_name'
p2
(dp3
S'Brazil'
p4
(i__main__
Nation
p5
(dp6
S'troop_skill'
p7
I1
sS'name'
p8
g4
sS'soldiers'
p9
I1687600
sS'money'
p10
L10000000000L
sS'conquered'
p11
NsS'adj'
p12
S'Braz.'
p13
sS'pop'
p14
I191241714
sbsS'N. Korea'
p15
(i__main__
Nation
p16
(dp17
g7
I2
sg8
g15
sg9
I5995000
sg10
I1000000000
sg11
Nsg12
S'N. Korean'
p18
sg14
I22666000
sbsS'Iran'
p19
(i__main__
Nation
p20
(dp21
g7
I2
sg8
g19
sg9
I1695000
sg10
L10000000000L
sg11
Nsg12
S'Iranian'
p22
sg14
I70495782
sbsS'USA'
p23
(i__main__
Nation
p24
(dp25
g7
I5
sg8
g23
sg9
I5385400
sg10
L1800000000000L
sg11
Nsg12
S'US'
p26
sg14
I306963000
sbsS'Mexico'
p27
(i__main__
Nation
p28
(dp29
g7
I1
sg8
g27
sg9
I517770
sg10
L10000000000L
sg11
Nsg12
S'Mexican'
p30
sg14
I111211789
sbsS'India'
p31
(i__main__
Nation
p32
(dp33
g7
I3
sg8
g31
sg9
I3773300
sg10
L100000000000L
sg11
Nsg12
S'Indian'
p34
sg14
I1100000000
sbsS'France'
p35
(i__main__
Nation
p36
(dp37
g7
I3
sg8
g35
sg9
I779450
sg10
L100000000000L
sg11
Nsg12
S'French'
p38
sg14
I65073482
sbsS'China'
p39
(i__main__
Nation
p40
(dp41
g7
I3
sg8
g39
sg9
I7024000
sg10
L1000000000000L
sg11
Nsg12
S'Chinese'
p42
sg14
I1338612968
sbsS'UK'
p43
(i__main__
Nation
p44
(dp45
g7
I5
sg8
g43
sg9
I421830
sg10
L200000000000L
sg11
Nsg12
g43
sg14
I61612300
sbsS'Japan'
p46
(i__main__
Nation
p47
(dp48
g7
I3
sg8
g46
sg9
I296550
sg10
L300000000000L
sg11
Nsg12
S'Japanese'
p49
sg14
I127433494
sbsS'Germany'
p50
(i__main__
Nation
p51
(dp52
g7
I4
sg8
g50
sg9
I606362
sg10
L250000000000L
sg11
Nsg12
S'German'
p53
sg14
I82060000
sbsS'Russia'
p54
(i__main__
Nation
p55
(dp56
g7
I4
sg8
g54
sg9
I3796100
sg10
L100000000000L
sg11
Nsg12
S'Russian'
p57
sg14
I142008838
sbssS'nats'
p58
(lp59
g24
ag36
ag51
ag28
ag40
ag55
ag20
ag47
ag32
ag5
ag44
ag16
asS'last_input'
p60
S's 1000000'
p61
sS'stances'
p62
(dp63
g55
(dp64
g55
I10
sg40
I6
sg32
I6
sg44
I6
sg28
I6
sg47
I6
sg5
I6
sg20
I6
sg16
I6
sg36
I6
sg51
I6
sg24
I5
ssg40
(dp65
g55
I6
sg40
I10
sg32
I6
sg44
I6
sg28
I6
sg47
I6
sg5
I6
sg20
I6
sg16
I6
sg36
I6
sg51
I6
sg24
I5
ssg32
(dp66
g55
I6
sg40
I6
sg32
I10
sg44
I6
sg28
I6
sg47
I6
sg5
I6
sg20
I6
sg16
I6
sg36
I6
sg51
I6
sg24
I7
ssg44
(dp67
g55
I6
sg40
I6
sg32
I6
sg44
I10
sg28
I6
sg47
I6
sg5
I6
sg20
I6
sg16
I6
sg36
I6
sg51
I6
sg24
I9
ssg28
(dp68
g55
I6
sg40
I6
sg32
I6
sg44
I6
sg28
I10
sg47
I6
sg5
I6
sg20
I6
sg16
I6
sg36
I6
sg51
I6
sg24
I7
ssg47
(dp69
g55
I6
sg40
I6
sg32
I6
sg44
I6
sg28
I6
sg47
I10
sg5
I6
sg20
I6
sg16
I6
sg36
I6
sg51
I6
sg24
I9
ssg5
(dp70
g55
I6
sg40
I6
sg32
I6
sg44
I6
sg28
I6
sg47
I6
sg5
I10
sg20
I6
sg16
I6
sg36
I6
sg51
I6
sg24
I7
ssg20
(dp71
g55
I6
sg40
I6
sg32
I6
sg44
I6
sg28
I6
sg47
I6
sg5
I6
sg20
I10
sg16
I6
sg36
I6
sg51
I6
sg24
I4
ssg16
(dp72
g55
I6
sg40
I6
sg32
I6
sg44
I6
sg28
I6
sg47
I6
sg5
I6
sg20
I6
sg16
I10
sg36
I6
sg51
I6
sg24
I4
ssg36
(dp73
g55
I6
sg40
I6
sg32
I6
sg44
I6
sg28
I6
sg47
I6
sg5
I6
sg20
I6
sg16
I6
sg36
I10
sg51
I6
sg24
I8
ssg51
(dp74
g55
I6
sg40
I6
sg32
I6
sg44
I6
sg28
I6
sg47
I6
sg5
I6
sg20
I6
sg16
I6
sg36
I6
sg51
I10
sg24
I8
ssg24
(dp75
g55
I5
sg40
I5
sg32
I7
sg44
I9
sg28
I7
sg47
I9
sg5
I7
sg20
I4
sg16
I4
sg36
I8
sg51
I8
sg24
I10
sssS'forces'
p76
(lp77
sS'you'
p78
I0
sb.